#include <math.h>
#include <stdio.h>
#include <stdlib.h>
#include <string.h>
#include <iostream>
using namespace std;

/*
 * 1000010548-25.cpp
 *??: 2010-10-31
 *??: ??
 *???????????
 */
int main(){//?????
	int n,i,j,k,t;//??????
	cin>>n;//??n
	int a[20000];//??????
	for(i=0;i<n;i++)//??????
		cin>>a[i];//????????
	cout<<a[0];//????????
	for(j=1;j<n;j++){//??????
		for(k=0;k<j;k++)//??????
			if(a[j]==a[k])//???????
				break;//????
		if(k==j)//??????????
		   cout<<" "<<a[j];//????
	}
	return 0;//?????
}